; Function Attrs: mustprogress nounwind uwtable
define void @_ZN6icu_756LocaleC2EOS0_(ptr noundef nonnull align 8 dereferenceable(217) %this, ptr noundef nonnull align 8 dereferenceable(217) %other) unnamed_addr #0 align 2 {
entry:
  store ptr getelementptr inbounds ({ [5 x ptr] }, ptr @_ZTVN6icu_756LocaleE, i64 0, i32 0, i64 2), ptr %this, align 8
  %fullName = getelementptr inbounds i8, ptr %this, i64 40
  %fullNameBuffer = getelementptr inbounds i8, ptr %this, i64 48
  store ptr %fullNameBuffer, ptr %fullName, align 8
  %baseName = getelementptr inbounds i8, ptr %this, i64 208
  store ptr %fullNameBuffer, ptr %baseName, align 8
  %call = tail call noundef nonnull align 8 dereferenceable(217) ptr @_ZN6icu_756LocaleaSEOS0_(ptr noundef nonnull align 8 dereferenceable(217) %this, ptr noundef nonnull align 8 dereferenceable(217) %other) #20
  ret void
}